target datalayout = "e-m:e-p270:32:32-p271:32:32-p272:64:64-i64:64-i128:128-f80:128-n8:16:32:64-S128"
target triple = "x86_64-pc-linux-gnu"

%struct.FormData_pg_type = type { i32, %struct.nameData, i32, i32, i16, i8, i8, i8, i8, i8, i8, i32, i32, i32, i32, i32, i32, i32, i32, i32, i32, i32, i8, i8, i8, i32, i32, i32, i32 }
%struct.nameData = type { [64 x i8] }
%struct.HeapTupleData = type { i32, %struct.ItemPointerData, i32, ptr }
%struct.ItemPointerData = type { %struct.BlockIdData, i16 }
%struct.BlockIdData = type { i16, i16 }
%struct.HeapTupleHeaderData = type { %union.anon, %struct.ItemPointerData, i16, i16, i8, [0 x i8] }
%union.anon = type { %struct.HeapTupleFields }
%struct.HeapTupleFields = type { i32, i32, %union.anon.0 }
%union.anon.0 = type { i32 }

@.str.1 = private unnamed_addr constant [13 x i8] c"parse_type.c\00", align 1
@.str.9 = private unnamed_addr constant [42 x i8] c"typeTypeId() called with NULL type struct\00", align 1
@__func__.typeTypeId = private unnamed_addr constant [11 x i8] c"typeTypeId\00", align 1

; Function Attrs: inlinehint nounwind uwtable
define internal ptr @GETSTRUCT(ptr noundef %0) #3 {
  %2 = alloca ptr, align 8
  store ptr %0, ptr %2, align 8
  %3 = load ptr, ptr %2, align 8
  %4 = getelementptr inbounds nuw %struct.HeapTupleData, ptr %3, i32 0, i32 3
  %5 = load ptr, ptr %4, align 8
  %6 = load ptr, ptr %2, align 8
  %7 = getelementptr inbounds nuw %struct.HeapTupleData, ptr %6, i32 0, i32 3
  %8 = load ptr, ptr %7, align 8
  %9 = getelementptr inbounds nuw %struct.HeapTupleHeaderData, ptr %8, i32 0, i32 4
  %10 = load i8, ptr %9, align 2
  %11 = zext i8 %10 to i32
  %12 = sext i32 %11 to i64
  %13 = getelementptr inbounds i8, ptr %5, i64 %12
  ret ptr %13
}

; Function Attrs: nounwind uwtable
define dso_local i32 @typeTypeId(ptr noundef %0) #0 {
  %2 = alloca ptr, align 8
  store ptr %0, ptr %2, align 8
  %3 = load ptr, ptr %2, align 8
  %4 = icmp eq ptr %3, null
  br i1 %4, label %5, label %15

5:                                                ; preds = %1
  br label %6

6:                                                ; preds = %5
  br i1 true, label %7, label %9

7:                                                ; preds = %6
  %8 = call zeroext i1 @errstart_cold(i32 noundef 21, ptr noundef null) #8
  br i1 %8, label %11, label %13

9:                                                ; preds = %6
  %10 = call zeroext i1 @errstart(i32 noundef 21, ptr noundef null)
  br i1 %10, label %11, label %13

11:                                               ; preds = %9, %7
  %12 = call i32 (ptr, ...) @errmsg_internal(ptr noundef @.str.9)
  call void @errfinish(ptr noundef @.str.1, i32 noundef 593, ptr noundef @__func__.typeTypeId)
  br label %13

13:                                               ; preds = %11, %9, %7
  unreachable

14:                                               ; No predecessors!
  br label %15

15:                                               ; preds = %14, %1
  %16 = load ptr, ptr %2, align 8
  %17 = call ptr @GETSTRUCT(ptr noundef %16)
  %18 = getelementptr inbounds nuw %struct.FormData_pg_type, ptr %17, i32 0, i32 0
  %19 = load i32, ptr %18, align 4
  ret i32 %19
}