; Function Attrs: nounwind uwtable
define dso_local i32 @typeTypeId(ptr noundef readonly captures(address_is_null) %0) local_unnamed_addr #0 {
  %2 = icmp eq ptr %0, null
  br i1 %2, label %3, label %6

3:                                                ; preds = %1
  %4 = tail call zeroext i1 @errstart_cold(i32 noundef 21, ptr noundef null) #8
  tail call void @llvm.assume(i1 %4)
  %5 = tail call i32 (ptr, ...) @errmsg_internal(ptr noundef nonnull @.str.9) #7
  tail call void @errfinish(ptr noundef nonnull @.str.1, i32 noundef 593, ptr noundef nonnull @__func__.typeTypeId) #7
  unreachable

6:                                                ; preds = %1
  %7 = getelementptr i8, ptr %0, i64 16
  %.val = load ptr, ptr %7, align 8
  %8 = getelementptr inbounds nuw i8, ptr %.val, i64 22
  %9 = load i8, ptr %8, align 2
  %10 = zext i8 %9 to i64
  %11 = getelementptr inbounds nuw i8, ptr %.val, i64 %10
  %12 = load i32, ptr %11, align 4
  ret i32 %12
}